target datalayout = "e-m:e-p270:32:32-p271:32:32-p272:64:64-i64:64-i128:128-f80:128-n8:16:32:64-S128"
target triple = "x86_64-pc-linux-gnu"

@.str.12 = private unnamed_addr constant [2 x i8] c"0\00", align 1
@.str.13 = private unnamed_addr constant [6 x i8] c"%.02f\00", align 1

; Function Attrs: nounwind uwtable
define internal i64 @gv_trim_zeros(ptr noundef %0) #0 {
  %2 = alloca i64, align 8
  %3 = alloca ptr, align 8
  %4 = alloca ptr, align 8
  %5 = alloca i32, align 4
  store ptr %0, ptr %3, align 8, !tbaa !73
  call void @llvm.lifetime.start.p0(i64 8, ptr %4) #14
  %6 = load ptr, ptr %3, align 8, !tbaa !73
  %7 = call ptr @strchr(ptr noundef %6, i32 noundef 46) #16
  store ptr %7, ptr %4, align 8, !tbaa !73
  %8 = load ptr, ptr %4, align 8, !tbaa !73
  %9 = icmp eq ptr %8, null
  br i1 %9, label %10, label %13

10:                                               ; preds = %1
  %11 = load ptr, ptr %3, align 8, !tbaa !73
  %12 = call i64 @strlen(ptr noundef %11) #16
  store i64 %12, ptr %2, align 8
  store i32 1, ptr %5, align 4
  br label %41

13:                                               ; preds = %1
  %14 = load ptr, ptr %4, align 8, !tbaa !73
  %15 = getelementptr inbounds i8, ptr %14, i64 2
  %16 = load i8, ptr %15, align 1, !tbaa !76
  %17 = sext i8 %16 to i32
  %18 = icmp eq i32 %17, 48
  br i1 %18, label %19, label %38

19:                                               ; preds = %13
  %20 = load ptr, ptr %4, align 8, !tbaa !73
  %21 = getelementptr inbounds i8, ptr %20, i64 1
  %22 = load i8, ptr %21, align 1, !tbaa !76
  %23 = sext i8 %22 to i32
  %24 = icmp eq i32 %23, 48
  br i1 %24, label %25, label %31

25:                                               ; preds = %19
  %26 = load ptr, ptr %4, align 8, !tbaa !73
  %27 = load ptr, ptr %3, align 8, !tbaa !73
  %28 = ptrtoint ptr %26 to i64
  %29 = ptrtoint ptr %27 to i64
  %30 = sub i64 %28, %29
  store i64 %30, ptr %2, align 8
  store i32 1, ptr %5, align 4
  br label %41

31:                                               ; preds = %19
  %32 = load ptr, ptr %4, align 8, !tbaa !73
  %33 = load ptr, ptr %3, align 8, !tbaa !73
  %34 = ptrtoint ptr %32 to i64
  %35 = ptrtoint ptr %33 to i64
  %36 = sub i64 %34, %35
  %37 = add i64 %36, 2
  store i64 %37, ptr %2, align 8
  store i32 1, ptr %5, align 4
  br label %41

38:                                               ; preds = %13
  %39 = load ptr, ptr %3, align 8, !tbaa !73
  %40 = call i64 @strlen(ptr noundef %39) #16
  store i64 %40, ptr %2, align 8
  store i32 1, ptr %5, align 4
  br label %41

41:                                               ; preds = %38, %31, %25, %10
  call void @llvm.lifetime.end.p0(i64 8, ptr %4) #14
  %42 = load i64, ptr %2, align 8
  ret i64 %42
}

; Function Attrs: nounwind uwtable
define void @gvprintdouble(ptr noundef %0, double noundef %1) #0 {
  %3 = alloca ptr, align 8
  %4 = alloca double, align 8
  %5 = alloca [50 x i8], align 16
  %6 = alloca i64, align 8
  store ptr %0, ptr %3, align 8, !tbaa !3
  store double %1, ptr %4, align 8, !tbaa !93
  %7 = load double, ptr %4, align 8, !tbaa !93
  %8 = fcmp ogt double %7, -5.000000e-03
  br i1 %8, label %9, label %15

9:                                                ; preds = %2
  %10 = load double, ptr %4, align 8, !tbaa !93
  %11 = fcmp olt double %10, 5.000000e-03
  br i1 %11, label %12, label %15

12:                                               ; preds = %9
  %13 = load ptr, ptr %3, align 8, !tbaa !3
  %14 = call i64 @gvwrite(ptr noundef %13, ptr noundef @.str.12, i64 noundef 1)
  br label %25

15:                                               ; preds = %9, %2
  call void @llvm.lifetime.start.p0(i64 50, ptr %5) #14
  %16 = getelementptr inbounds [50 x i8], ptr %5, i64 0, i64 0
  %17 = load double, ptr %4, align 8, !tbaa !93
  %18 = call i32 (ptr, i64, ptr, ...) @snprintf(ptr noundef %16, i64 noundef 50, ptr noundef @.str.13, double noundef %17) #14
  call void @llvm.lifetime.start.p0(i64 8, ptr %6) #14
  %19 = getelementptr inbounds [50 x i8], ptr %5, i64 0, i64 0
  %20 = call i64 @gv_trim_zeros(ptr noundef %19)
  store i64 %20, ptr %6, align 8, !tbaa !71
  %21 = load ptr, ptr %3, align 8, !tbaa !3
  %22 = getelementptr inbounds [50 x i8], ptr %5, i64 0, i64 0
  %23 = load i64, ptr %6, align 8, !tbaa !71
  %24 = call i64 @gvwrite(ptr noundef %21, ptr noundef %22, i64 noundef %23)
  call void @llvm.lifetime.end.p0(i64 8, ptr %6) #14
  call void @llvm.lifetime.end.p0(i64 50, ptr %5) #14
  br label %25

25:                                               ; preds = %15, %12
  ret void
}