; Function Attrs: nounwind uwtable
define void @gvprintdouble(ptr noundef %0, double noundef %1) local_unnamed_addr #0 {
  %3 = alloca [50 x i8], align 16
  %4 = tail call double @llvm.fabs.f64(double %1)
  %or.cond = fcmp olt double %4, 5.000000e-03
  br i1 %or.cond, label %5, label %7

5:                                                ; preds = %2
  %6 = tail call i64 @gvwrite(ptr noundef %0, ptr noundef nonnull @.str.12, i64 noundef 1)
  br label %25

7:                                                ; preds = %2
  call void @llvm.lifetime.start.p0(i64 50, ptr nonnull %3) #21
  %8 = call i32 (ptr, i64, ptr, ...) @snprintf(ptr noundef nonnull dereferenceable(1) %3, i64 noundef 50, ptr noundef nonnull @.str.13, double noundef %1) #21
  %9 = call ptr @strchr(ptr noundef nonnull dereferenceable(1) %3, i32 noundef 46) #22
  %10 = icmp eq ptr %9, null
  br i1 %10, label %.sink.split.i, label %11

11:                                               ; preds = %7
  %12 = getelementptr inbounds nuw i8, ptr %9, i64 2
  %13 = load i8, ptr %12, align 1, !tbaa !54
  %14 = icmp eq i8 %13, 48
  br i1 %14, label %15, label %.sink.split.i

15:                                               ; preds = %11
  %16 = getelementptr inbounds nuw i8, ptr %9, i64 1
  %17 = load i8, ptr %16, align 1, !tbaa !54
  %18 = icmp eq i8 %17, 48
  %19 = ptrtoint ptr %9 to i64
  %20 = ptrtoint ptr %3 to i64
  %21 = sub i64 %19, %20
  %22 = add i64 %21, 2
  %spec.select.i = select i1 %18, i64 %21, i64 %22
  br label %gv_trim_zeros.exit

.sink.split.i:                                    ; preds = %11, %7
  %23 = call i64 @strlen(ptr noundef nonnull dereferenceable(1) %3) #22
  br label %gv_trim_zeros.exit

gv_trim_zeros.exit:                               ; preds = %15, %.sink.split.i
  %.0.i = phi i64 [ %spec.select.i, %15 ], [ %23, %.sink.split.i ]
  %24 = call i64 @gvwrite(ptr noundef %0, ptr noundef nonnull %3, i64 noundef %.0.i)
  call void @llvm.lifetime.end.p0(i64 50, ptr nonnull %3) #21
  br label %25

25:                                               ; preds = %gv_trim_zeros.exit, %5
  ret void
}